#include <math.h>
#include <stdio.h>
#include <stdlib.h>
#include <string.h>

int left(int m,int n,int k)
{
	int i;
	for(i=1;i<=n;i++){
		if(m%n!=k){
			return 0;
		}
		m=m-k-(m-k)/n;
	}
	return m;
}
int main()
{
	int n,k;
	int m;
	scanf("%d %d",&n,&k);
	for(m=1;1;m++){
		if(left(m,n,k)>=1)
			break;
	}
	printf("%d",m);
	return 0;
}