; ModuleID = '54/958.c'
source_filename = "54/958.c"
target datalayout = "e-m:e-p270:32:32-p271:32:32-p272:64:64-i64:64-f80:128-n8:16:32:64-S128"
target triple = "x86_64-pc-linux-gnu"

@.str = private unnamed_addr constant [6 x i8] c"%d %d\00", align 1
@.str.1 = private unnamed_addr constant [3 x i8] c"%d\00", align 1

; Function Attrs: noinline nounwind uwtable
define dso_local i32 @left(i32 %0, i32 %1, i32 %2) #0 {
  %4 = alloca i32, align 4
  %5 = alloca i32, align 4
  %6 = alloca i32, align 4
  %7 = alloca i32, align 4
  %8 = alloca i32, align 4
  store i32 %0, i32* %5, align 4
  store i32 %1, i32* %6, align 4
  store i32 %2, i32* %7, align 4
  store i32 1, i32* %8, align 4
  br label %9

9:                                                ; preds = %30, %3
  %10 = load i32, i32* %8, align 4
  %11 = load i32, i32* %6, align 4
  %12 = icmp sle i32 %10, %11
  br i1 %12, label %13, label %33

13:                                               ; preds = %9
  %14 = load i32, i32* %5, align 4
  %15 = load i32, i32* %6, align 4
  %16 = srem i32 %14, %15
  %17 = load i32, i32* %7, align 4
  %18 = icmp ne i32 %16, %17
  br i1 %18, label %19, label %20

19:                                               ; preds = %13
  store i32 0, i32* %4, align 4
  br label %35

20:                                               ; preds = %13
  %21 = load i32, i32* %5, align 4
  %22 = load i32, i32* %7, align 4
  %23 = sub nsw i32 %21, %22
  %24 = load i32, i32* %5, align 4
  %25 = load i32, i32* %7, align 4
  %26 = sub nsw i32 %24, %25
  %27 = load i32, i32* %6, align 4
  %28 = sdiv i32 %26, %27
  %29 = sub nsw i32 %23, %28
  store i32 %29, i32* %5, align 4
  br label %30

30:                                               ; preds = %20
  %31 = load i32, i32* %8, align 4
  %32 = add nsw i32 %31, 1
  store i32 %32, i32* %8, align 4
  br label %9

33:                                               ; preds = %9
  %34 = load i32, i32* %5, align 4
  store i32 %34, i32* %4, align 4
  br label %35

35:                                               ; preds = %33, %19
  %36 = load i32, i32* %4, align 4
  ret i32 %36
}

; Function Attrs: noinline nounwind uwtable
define dso_local i32 @main() #0 {
  %1 = alloca i32, align 4
  %2 = alloca i32, align 4
  %3 = alloca i32, align 4
  %4 = alloca i32, align 4
  store i32 0, i32* %1, align 4
  %5 = call i32 (i8*, ...) @__isoc99_scanf(i8* getelementptr inbounds ([6 x i8], [6 x i8]* @.str, i64 0, i64 0), i32* %2, i32* %3)
  store i32 1, i32* %4, align 4
  br label %6

6:                                                ; preds = %15, %0
  br i1 true, label %7, label %18

7:                                                ; preds = %6
  %8 = load i32, i32* %4, align 4
  %9 = load i32, i32* %2, align 4
  %10 = load i32, i32* %3, align 4
  %11 = call i32 @left(i32 %8, i32 %9, i32 %10)
  %12 = icmp sge i32 %11, 1
  br i1 %12, label %13, label %14

13:                                               ; preds = %7
  br label %18

14:                                               ; preds = %7
  br label %15

15:                                               ; preds = %14
  %16 = load i32, i32* %4, align 4
  %17 = add nsw i32 %16, 1
  store i32 %17, i32* %4, align 4
  br label %6

18:                                               ; preds = %13, %6
  %19 = load i32, i32* %4, align 4
  %20 = call i32 (i8*, ...) @printf(i8* getelementptr inbounds ([3 x i8], [3 x i8]* @.str.1, i64 0, i64 0), i32 %19)
  ret i32 0
}

declare dso_local i32 @__isoc99_scanf(i8*, ...) #1

declare dso_local i32 @printf(i8*, ...) #1


!llvm.module.flags = !{!0}
!llvm.ident = !{!1}

!0 = !{i32 1, !"wchar_size", i32 4}
!1 = !{!"clang version 10.0.0-4ubuntu1 "}
